target datalayout = "e-m:e-p270:32:32-p271:32:32-p272:64:64-i64:64-i128:128-f80:128-n8:16:32:64-S128"
target triple = "x86_64-pc-linux-gnu"

%"struct.std::_Vector_base.41" = type { %"struct.std::_Vector_base<Luau::NotNull<Luau::Scope>, std::allocator<Luau::NotNull<Luau::Scope>>>::_Vector_impl" }
%"struct.std::_Vector_base<Luau::NotNull<Luau::Scope>, std::allocator<Luau::NotNull<Luau::Scope>>>::_Vector_impl" = type { %"struct.std::_Vector_base<Luau::NotNull<Luau::Scope>, std::allocator<Luau::NotNull<Luau::Scope>>>::_Vector_impl_data" }
%"struct.std::_Vector_base<Luau::NotNull<Luau::Scope>, std::allocator<Luau::NotNull<Luau::Scope>>>::_Vector_impl_data" = type { ptr, ptr, ptr }
%"class.std::optional.306" = type { %"struct.std::_Optional_base.307" }
%"struct.std::_Optional_base.307" = type { %"struct.std::_Optional_payload.309" }
%"struct.std::_Optional_payload.309" = type { %"struct.std::_Optional_payload.base.314", [7 x i8] }
%"struct.std::_Optional_payload.base.314" = type { %"struct.std::_Optional_payload_base.base.313" }
%"struct.std::_Optional_payload_base.base.313" = type <{ %"union.std::_Optional_payload_base<Luau::StackPusher>::_Storage", i8 }>
%"union.std::_Optional_payload_base<Luau::StackPusher>::_Storage" = type { %"struct.Luau::StackPusher" }
%"struct.Luau::StackPusher" = type { ptr, %"struct.Luau::NotNull.312" }
%"struct.Luau::NotNull.312" = type { ptr }
%"class.Luau::AstStatBlock" = type <{ %"class.Luau::AstStat.base", [3 x i8], %"struct.Luau::AstArray.305", i8, [7 x i8] }>
%"class.Luau::AstStat.base" = type { %"class.Luau::AstNode.base", i8 }
%"class.Luau::AstNode.base" = type <{ ptr, i32, %"struct.Luau::Location" }>
%"struct.Luau::Location" = type { %"struct.Luau::Position", %"struct.Luau::Position" }
%"struct.Luau::Position" = type { i32, i32 }
%"struct.Luau::AstArray.305" = type { ptr, i64 }
%"struct.std::_Optional_payload_base.311" = type <{ %"union.std::_Optional_payload_base<Luau::StackPusher>::_Storage", i8, [7 x i8] }>

; Function Attrs: mustprogress nounwind uwtable
define linkonce_odr dso_local void @_ZNSt15__new_allocatorIN4Luau7NotNullINS0_5ScopeEEEE7destroyIS3_EEvPT_(ptr noundef nonnull align 1 dereferenceable(1) %0, ptr noundef %1) #2 comdat align 2 {
  %3 = alloca ptr, align 8
  %4 = alloca ptr, align 8
  store ptr %0, ptr %3, align 8, !tbaa !1499
  store ptr %1, ptr %4, align 8, !tbaa !600
  ret void
}

; Function Attrs: mustprogress nounwind uwtable
define linkonce_odr dso_local void @_ZNSt16allocator_traitsISaIN4Luau7NotNullINS0_5ScopeEEEEE7destroyIS3_EEvRS4_PT_(ptr noundef nonnull align 1 dereferenceable(1) %0, ptr noundef %1) #2 comdat align 2 {
  %3 = alloca ptr, align 8
  %4 = alloca ptr, align 8
  store ptr %0, ptr %3, align 8, !tbaa !1494
  store ptr %1, ptr %4, align 8, !tbaa !600
  %5 = load ptr, ptr %3, align 8, !tbaa !1494
  %6 = load ptr, ptr %4, align 8, !tbaa !600
  call void @_ZNSt15__new_allocatorIN4Luau7NotNullINS0_5ScopeEEEE7destroyIS3_EEvPT_(ptr noundef nonnull align 1 dereferenceable(1) %5, ptr noundef %6) #4
  ret void
}

; Function Attrs: mustprogress nounwind uwtable
define linkonce_odr dso_local void @_ZNSt6vectorIN4Luau7NotNullINS0_5ScopeEEESaIS3_EE8pop_backEv(ptr noundef nonnull align 8 dereferenceable(24) %0) #2 comdat align 2 {
  %2 = alloca ptr, align 8
  store ptr %0, ptr %2, align 8, !tbaa !251
  %3 = load ptr, ptr %2, align 8
  %4 = getelementptr inbounds nuw %"struct.std::_Vector_base.41", ptr %3, i32 0, i32 0
  %5 = getelementptr inbounds nuw %"struct.std::_Vector_base<Luau::NotNull<Luau::Scope>, std::allocator<Luau::NotNull<Luau::Scope>>>::_Vector_impl_data", ptr %4, i32 0, i32 1
  %6 = load ptr, ptr %5, align 8, !tbaa !280
  %7 = getelementptr inbounds %"struct.Luau::NotNull.312", ptr %6, i32 -1
  store ptr %7, ptr %5, align 8, !tbaa !280
  %8 = getelementptr inbounds nuw %"struct.std::_Vector_base.41", ptr %3, i32 0, i32 0
  %9 = getelementptr inbounds nuw %"struct.std::_Vector_base.41", ptr %3, i32 0, i32 0
  %10 = getelementptr inbounds nuw %"struct.std::_Vector_base<Luau::NotNull<Luau::Scope>, std::allocator<Luau::NotNull<Luau::Scope>>>::_Vector_impl_data", ptr %9, i32 0, i32 1
  %11 = load ptr, ptr %10, align 8, !tbaa !280
  call void @_ZNSt16allocator_traitsISaIN4Luau7NotNullINS0_5ScopeEEEEE7destroyIS3_EEvRS4_PT_(ptr noundef nonnull align 1 dereferenceable(1) %8, ptr noundef %11) #4
  ret void
}

; Function Attrs: mustprogress nounwind uwtable
define linkonce_odr dso_local void @_ZN4Luau11StackPusherD2Ev(ptr noundef nonnull align 8 dereferenceable(16) %0) unnamed_addr #2 comdat align 2 {
  %2 = alloca ptr, align 8
  store ptr %0, ptr %2, align 8, !tbaa !365
  %3 = load ptr, ptr %2, align 8
  %4 = getelementptr inbounds nuw %"struct.Luau::StackPusher", ptr %3, i32 0, i32 0
  %5 = load ptr, ptr %4, align 8, !tbaa !367
  %6 = icmp ne ptr %5, null
  br i1 %6, label %7, label %10

7:                                                ; preds = %1
  %8 = getelementptr inbounds nuw %"struct.Luau::StackPusher", ptr %3, i32 0, i32 0
  %9 = load ptr, ptr %8, align 8, !tbaa !367
  call void @_ZNSt6vectorIN4Luau7NotNullINS0_5ScopeEEESaIS3_EE8pop_backEv(ptr noundef nonnull align 8 dereferenceable(24) %9) #4
  br label %10

10:                                               ; preds = %7, %1
  ret void
}

; Function Attrs: mustprogress nounwind uwtable
define linkonce_odr dso_local void @_ZNSt22_Optional_payload_baseIN4Luau11StackPusherEE8_StorageIS1_Lb0EED2Ev(ptr noundef nonnull align 8 dereferenceable(16) %0) unnamed_addr #2 comdat align 2 {
  %2 = alloca ptr, align 8
  store ptr %0, ptr %2, align 8, !tbaa !1656
  ret void
}

; Function Attrs: mustprogress nounwind uwtable
define linkonce_odr dso_local void @_ZNSt22_Optional_payload_baseIN4Luau11StackPusherEE10_M_destroyEv(ptr noundef nonnull align 8 dereferenceable(17) %0) #2 comdat align 2 {
  %2 = alloca ptr, align 8
  store ptr %0, ptr %2, align 8, !tbaa !1652
  %3 = load ptr, ptr %2, align 8
  %4 = getelementptr inbounds nuw %"struct.std::_Optional_payload_base.311", ptr %3, i32 0, i32 1
  store i8 0, ptr %4, align 8, !tbaa !1654
  %5 = getelementptr inbounds nuw %"struct.std::_Optional_payload_base.311", ptr %3, i32 0, i32 0
  call void @_ZN4Luau11StackPusherD2Ev(ptr noundef nonnull align 8 dereferenceable(16) %5) #4
  ret void
}

; Function Attrs: mustprogress nounwind uwtable
define linkonce_odr dso_local void @_ZNSt22_Optional_payload_baseIN4Luau11StackPusherEED2Ev(ptr noundef nonnull align 8 dereferenceable(17) %0) unnamed_addr #2 comdat align 2 {
  %2 = alloca ptr, align 8
  store ptr %0, ptr %2, align 8, !tbaa !1652
  %3 = load ptr, ptr %2, align 8
  %4 = getelementptr inbounds nuw %"struct.std::_Optional_payload_base.311", ptr %3, i32 0, i32 0
  call void @_ZNSt22_Optional_payload_baseIN4Luau11StackPusherEE8_StorageIS1_Lb0EED2Ev(ptr noundef nonnull align 8 dereferenceable(16) %4) #4
  ret void
}

; Function Attrs: mustprogress nounwind uwtable
define linkonce_odr dso_local void @_ZNSt22_Optional_payload_baseIN4Luau11StackPusherEE8_M_resetEv(ptr noundef nonnull align 8 dereferenceable(17) %0) #2 comdat align 2 {
  %2 = alloca ptr, align 8
  store ptr %0, ptr %2, align 8, !tbaa !1652
  %3 = load ptr, ptr %2, align 8
  %4 = getelementptr inbounds nuw %"struct.std::_Optional_payload_base.311", ptr %3, i32 0, i32 1
  %5 = load i8, ptr %4, align 8, !tbaa !1654, !range !65, !noundef !66
  %6 = trunc i8 %5 to i1
  br i1 %6, label %7, label %8

7:                                                ; preds = %1
  call void @_ZNSt22_Optional_payload_baseIN4Luau11StackPusherEE10_M_destroyEv(ptr noundef nonnull align 8 dereferenceable(17) %3) #4
  br label %8

8:                                                ; preds = %7, %1
  ret void
}

; Function Attrs: mustprogress nounwind uwtable
define linkonce_odr dso_local void @_ZNSt17_Optional_payloadIN4Luau11StackPusherELb0ELb0ELb0EED2Ev(ptr noundef nonnull align 8 dereferenceable(17) %0) unnamed_addr #2 comdat align 2 {
  %2 = alloca ptr, align 8
  store ptr %0, ptr %2, align 8, !tbaa !1648
  %3 = load ptr, ptr %2, align 8
  call void @_ZNSt22_Optional_payload_baseIN4Luau11StackPusherEE8_M_resetEv(ptr noundef nonnull align 8 dereferenceable(17) %3) #4
  call void @_ZNSt22_Optional_payload_baseIN4Luau11StackPusherEED2Ev(ptr noundef nonnull align 8 dereferenceable(17) %3) #4
  ret void
}

; Function Attrs: inlinehint mustprogress nounwind uwtable
define linkonce_odr dso_local void @_ZNSt14_Optional_baseIN4Luau11StackPusherELb0ELb0EED2Ev(ptr noundef nonnull align 8 dereferenceable(24) %0) unnamed_addr #3 comdat align 2 {
  %2 = alloca ptr, align 8
  store ptr %0, ptr %2, align 8, !tbaa !758
  %3 = load ptr, ptr %2, align 8
  %4 = getelementptr inbounds nuw %"struct.std::_Optional_base.307", ptr %3, i32 0, i32 0
  call void @_ZNSt17_Optional_payloadIN4Luau11StackPusherELb0ELb0ELb0EED2Ev(ptr noundef nonnull align 8 dereferenceable(17) %4) #4
  ret void
}

; Function Attrs: mustprogress nounwind uwtable
define linkonce_odr dso_local noundef ptr @_ZNK4Luau8AstArrayIPNS_7AstStatEE3endEv(ptr noundef nonnull align 8 dereferenceable(16) %0) #2 comdat align 2 {
  %2 = alloca ptr, align 8
  store ptr %0, ptr %2, align 8, !tbaa !134
  %3 = load ptr, ptr %2, align 8
  %4 = getelementptr inbounds nuw %"struct.Luau::AstArray.305", ptr %3, i32 0, i32 0
  %5 = load ptr, ptr %4, align 8, !tbaa !760
  %6 = getelementptr inbounds nuw %"struct.Luau::AstArray.305", ptr %3, i32 0, i32 1
  %7 = load i64, ptr %6, align 8, !tbaa !761
  %8 = getelementptr inbounds nuw ptr, ptr %5, i64 %7
  ret ptr %8
}

; Function Attrs: mustprogress nounwind uwtable
define linkonce_odr dso_local noundef ptr @_ZNK4Luau8AstArrayIPNS_7AstStatEE5beginEv(ptr noundef nonnull align 8 dereferenceable(16) %0) #2 comdat align 2 {
  %2 = alloca ptr, align 8
  store ptr %0, ptr %2, align 8, !tbaa !134
  %3 = load ptr, ptr %2, align 8
  %4 = getelementptr inbounds nuw %"struct.Luau::AstArray.305", ptr %3, i32 0, i32 0
  %5 = load ptr, ptr %4, align 8, !tbaa !760
  ret ptr %5
}

; Function Attrs: mustprogress uwtable
define dso_local void @_ZN4Luau12TypeChecker25visitEPNS_12AstStatBlockE(ptr noundef nonnull align 8 dereferenceable(784) %0, ptr noundef %1) #7 align 2 personality ptr @__gxx_personality_v0 {
  %3 = alloca ptr, align 8
  %4 = alloca ptr, align 8
  %5 = alloca %"class.std::optional.306", align 8
  %6 = alloca ptr, align 8
  %7 = alloca ptr, align 8
  %8 = alloca ptr, align 8
  %9 = alloca i32, align 4
  %10 = alloca ptr, align 8
  %11 = alloca ptr, align 8
  store ptr %0, ptr %3, align 8, !tbaa !131
  store ptr %1, ptr %4, align 8, !tbaa !133
  %12 = load ptr, ptr %3, align 8
  call void @llvm.lifetime.start.p0(i64 24, ptr %5) #4
  %13 = load ptr, ptr %4, align 8, !tbaa !133
  call void @_ZN4Luau12TypeChecker29pushStackEPNS_7AstNodeE(ptr dead_on_unwind writable sret(%"class.std::optional.306") align 8 %5, ptr noundef nonnull align 8 dereferenceable(784) %12, ptr noundef %13)
  call void @llvm.lifetime.start.p0(i64 8, ptr %6) #4
  %14 = load ptr, ptr %4, align 8, !tbaa !133
  %15 = getelementptr inbounds nuw %"class.Luau::AstStatBlock", ptr %14, i32 0, i32 2
  store ptr %15, ptr %6, align 8, !tbaa !134
  call void @llvm.lifetime.start.p0(i64 8, ptr %7) #4
  %16 = load ptr, ptr %6, align 8, !tbaa !134
  %17 = invoke noundef ptr @_ZNK4Luau8AstArrayIPNS_7AstStatEE5beginEv(ptr noundef nonnull align 8 dereferenceable(16) %16)
          to label %18 unwind label %27

18:                                               ; preds = %2
  store ptr %17, ptr %7, align 8, !tbaa !136
  call void @llvm.lifetime.start.p0(i64 8, ptr %10) #4
  %19 = load ptr, ptr %6, align 8, !tbaa !134
  %20 = invoke noundef ptr @_ZNK4Luau8AstArrayIPNS_7AstStatEE3endEv(ptr noundef nonnull align 8 dereferenceable(16) %19)
          to label %21 unwind label %31

21:                                               ; preds = %18
  store ptr %20, ptr %10, align 8, !tbaa !136
  br label %22

22:                                               ; preds = %40, %21
  %23 = load ptr, ptr %7, align 8, !tbaa !136
  %24 = load ptr, ptr %10, align 8, !tbaa !136
  %25 = icmp ne ptr %23, %24
  br i1 %25, label %35, label %26

26:                                               ; preds = %22
  call void @llvm.lifetime.end.p0(i64 8, ptr %10) #4
  call void @llvm.lifetime.end.p0(i64 8, ptr %7) #4
  call void @llvm.lifetime.end.p0(i64 8, ptr %6) #4
  br label %49

27:                                               ; preds = %2
  %28 = landingpad { ptr, i32 }
          cleanup
  %29 = extractvalue { ptr, i32 } %28, 0
  store ptr %29, ptr %8, align 8
  %30 = extractvalue { ptr, i32 } %28, 1
  store i32 %30, ptr %9, align 4
  br label %48

31:                                               ; preds = %18
  %32 = landingpad { ptr, i32 }
          cleanup
  %33 = extractvalue { ptr, i32 } %32, 0
  store ptr %33, ptr %8, align 8
  %34 = extractvalue { ptr, i32 } %32, 1
  store i32 %34, ptr %9, align 4
  br label %47

35:                                               ; preds = %22
  call void @llvm.lifetime.start.p0(i64 8, ptr %11) #4
  %36 = load ptr, ptr %7, align 8, !tbaa !136
  %37 = load ptr, ptr %36, align 8, !tbaa !139
  store ptr %37, ptr %11, align 8, !tbaa !139
  %38 = load ptr, ptr %11, align 8, !tbaa !139
  invoke void @_ZN4Luau12TypeChecker25visitEPNS_7AstStatE(ptr noundef nonnull align 8 dereferenceable(784) %12, ptr noundef %38)
          to label %39 unwind label %43

39:                                               ; preds = %35
  call void @llvm.lifetime.end.p0(i64 8, ptr %11) #4
  br label %40

40:                                               ; preds = %39
  %41 = load ptr, ptr %7, align 8, !tbaa !136
  %42 = getelementptr inbounds nuw ptr, ptr %41, i32 1
  store ptr %42, ptr %7, align 8, !tbaa !136
  br label %22

43:                                               ; preds = %35
  %44 = landingpad { ptr, i32 }
          cleanup
  %45 = extractvalue { ptr, i32 } %44, 0
  store ptr %45, ptr %8, align 8
  %46 = extractvalue { ptr, i32 } %44, 1
  store i32 %46, ptr %9, align 4
  call void @llvm.lifetime.end.p0(i64 8, ptr %11) #4
  br label %47

47:                                               ; preds = %43, %31
  call void @llvm.lifetime.end.p0(i64 8, ptr %10) #4
  br label %48

48:                                               ; preds = %47, %27
  call void @llvm.lifetime.end.p0(i64 8, ptr %7) #4
  call void @llvm.lifetime.end.p0(i64 8, ptr %6) #4
  call void @_ZNSt14_Optional_baseIN4Luau11StackPusherELb0ELb0EED2Ev(ptr noundef nonnull align 8 dereferenceable(24) %5) #4
  call void @llvm.lifetime.end.p0(i64 24, ptr %5) #4
  br label %50

49:                                               ; preds = %26
  call void @_ZNSt14_Optional_baseIN4Luau11StackPusherELb0ELb0EED2Ev(ptr noundef nonnull align 8 dereferenceable(24) %5) #4
  call void @llvm.lifetime.end.p0(i64 24, ptr %5) #4
  ret void

50:                                               ; preds = %48
  %51 = load ptr, ptr %8, align 8
  %52 = load i32, ptr %9, align 4
  %53 = insertvalue { ptr, i32 } poison, ptr %51, 0
  %54 = insertvalue { ptr, i32 } %53, i32 %52, 1
  resume { ptr, i32 } %54
}