; Function Attrs: mustprogress uwtable
define dso_local void @_ZN4Luau12TypeChecker25visitEPNS_12AstStatBlockE(ptr noundef nonnull align 8 dereferenceable(784) %0, ptr noundef %1) local_unnamed_addr #5 align 2 personality ptr @__gxx_personality_v0 {
  %3 = alloca %"class.std::optional.306", align 8
  call void @llvm.lifetime.start.p0(i64 24, ptr nonnull %3) #33
  call void @_ZN4Luau12TypeChecker29pushStackEPNS_7AstNodeE(ptr dead_on_unwind nonnull writable sret(%"class.std::optional.306") align 8 %3, ptr noundef nonnull align 8 dereferenceable(784) %0, ptr noundef %1)
  %4 = getelementptr inbounds nuw i8, ptr %1, i64 32
  %5 = load ptr, ptr %4, align 8, !tbaa !77
  %6 = getelementptr inbounds nuw i8, ptr %1, i64 40
  %7 = load i64, ptr %6, align 8, !tbaa !80
  %8 = getelementptr inbounds nuw ptr, ptr %5, i64 %7
  %.not13 = icmp eq i64 %7, 0
  br i1 %.not13, label %._crit_edge, label %.lr.ph

._crit_edge:                                      ; preds = %19, %2
  %9 = getelementptr inbounds nuw i8, ptr %3, i64 16
  %10 = load i8, ptr %9, align 8, !tbaa !81, !range !83, !noundef !84
  %11 = trunc nuw i8 %10 to i1
  br i1 %11, label %12, label %_ZNSt14_Optional_baseIN4Luau11StackPusherELb0ELb0EED2Ev.exit

12:                                               ; preds = %._crit_edge
  %13 = load ptr, ptr %3, align 8, !tbaa !85
  %.not.i.i.i.i.i = icmp eq ptr %13, null
  br i1 %.not.i.i.i.i.i, label %_ZNSt14_Optional_baseIN4Luau11StackPusherELb0ELb0EED2Ev.exit, label %14

14:                                               ; preds = %12
  %15 = getelementptr inbounds nuw i8, ptr %13, i64 8
  %16 = load ptr, ptr %15, align 8, !tbaa !90
  %17 = getelementptr inbounds i8, ptr %16, i64 -8
  store ptr %17, ptr %15, align 8, !tbaa !90
  br label %_ZNSt14_Optional_baseIN4Luau11StackPusherELb0ELb0EED2Ev.exit

_ZNSt14_Optional_baseIN4Luau11StackPusherELb0ELb0EED2Ev.exit: ; preds = %._crit_edge, %12, %14
  call void @llvm.lifetime.end.p0(i64 24, ptr nonnull %3) #33
  ret void

.lr.ph:                                           ; preds = %2, %19
  %.014 = phi ptr [ %20, %19 ], [ %5, %2 ]
  %18 = load ptr, ptr %.014, align 8, !tbaa !93
  invoke void @_ZN4Luau12TypeChecker25visitEPNS_7AstStatE(ptr noundef nonnull align 8 dereferenceable(784) %0, ptr noundef %18)
          to label %19 unwind label %21

19:                                               ; preds = %.lr.ph
  %20 = getelementptr inbounds nuw i8, ptr %.014, i64 8
  %.not = icmp eq ptr %20, %8
  br i1 %.not, label %._crit_edge, label %.lr.ph

21:                                               ; preds = %.lr.ph
  %22 = landingpad { ptr, i32 }
          cleanup
  %23 = getelementptr inbounds nuw i8, ptr %3, i64 16
  %24 = load i8, ptr %23, align 8, !tbaa !81, !range !83, !noundef !84
  %25 = trunc nuw i8 %24 to i1
  br i1 %25, label %26, label %_ZNSt14_Optional_baseIN4Luau11StackPusherELb0ELb0EED2Ev.exit12

26:                                               ; preds = %21
  %27 = load ptr, ptr %3, align 8, !tbaa !85
  %.not.i.i.i.i.i11 = icmp eq ptr %27, null
  br i1 %.not.i.i.i.i.i11, label %_ZNSt14_Optional_baseIN4Luau11StackPusherELb0ELb0EED2Ev.exit12, label %28

28:                                               ; preds = %26
  %29 = getelementptr inbounds nuw i8, ptr %27, i64 8
  %30 = load ptr, ptr %29, align 8, !tbaa !90
  %31 = getelementptr inbounds i8, ptr %30, i64 -8
  store ptr %31, ptr %29, align 8, !tbaa !90
  br label %_ZNSt14_Optional_baseIN4Luau11StackPusherELb0ELb0EED2Ev.exit12

_ZNSt14_Optional_baseIN4Luau11StackPusherELb0ELb0EED2Ev.exit12: ; preds = %21, %26, %28
  call void @llvm.lifetime.end.p0(i64 24, ptr nonnull %3) #33
  resume { ptr, i32 } %22
}